Certificate:
    Data:
        Version: 3 (0x2)
        Serial Number: 1 (0x1)
    Signature Algorithm: sha1WithRSAEncryption
        Issuer: C=DE, O=CPS, CN=CPS RSA Root-CA
        Validity
            Not Before: Jun  8 21:06:16 2014 GMT
            Not After : Jun 17 21:06:16 2016 GMT
        Subject: C=DE, O=CPS, CN=CPS RSA AS8 CA
        Subject Public Key Info:
            Public Key Algorithm: rsaEncryption
                Public-Key: (2048 bit)
                Modulus:
                    00:af:77:0a:a7:ef:c5:0e:8a:a0:ab:d7:bc:16:e2:
                    ed:2d:21:75:8f:ce:ba:da:5f:22:23:70:46:99:40:
                    76:c8:91:41:c0:4e:86:be:eb:a7:43:54:1f:a2:67:
                    19:a4:17:32:e2:f4:5a:cf:34:ef:10:01:25:07:b6:
                    c8:03:16:fb:f9:a2:dd:2c:c3:93:05:63:8d:61:f8:
                    d0:8d:fd:f9:cb:c0:12:5e:8e:99:39:48:5f:17:0c:
                    a6:50:36:e3:d9:9a:d3:a3:6c:1a:b0:e2:6c:ef:71:
                    e1:d6:0c:fe:b5:00:27:25:f5:8f:9e:d1:aa:87:ca:
                    b0:32:5e:f8:56:a4:6a:f3:81:1d:48:3f:f0:63:c7:
                    3e:6a:d9:c9:d3:f4:65:e4:cb:cb:db:fc:14:c2:0d:
                    0e:29:5a:0e:ac:10:06:b5:11:20:91:b0:f8:8d:d3:
                    2f:6b:f3:d7:2c:aa:36:9d:54:ab:79:e4:36:69:a3:
                    e5:7a:dd:a6:d9:14:49:92:39:bd:af:4e:df:c6:14:
                    d4:6a:f8:6a:34:b7:95:33:b1:66:41:96:a0:39:4d:
                    46:2b:83:29:bb:8a:2c:8c:0f:63:20:56:a8:06:ba:
                    87:dc:1c:37:b3:b4:6c:af:98:86:cb:2a:7f:20:5c:
                    9c:ec:63:18:57:79:4c:e2:6e:64:87:03:72:8f:67:
                    4f:93
                Exponent: 65537 (0x10001)
        X509v3 extensions:
            X509v3 Basic Constraints: critical
                CA:TRUE, pathlen:0
            X509v3 Subject Key Identifier: 
                0D:11:3F:B4:6E:86:08:86:19:98:EC:50:DC:8E:DF:77:5B:5F:D5:09
            X509v3 Authority Key Identifier: 
                keyid:3B:7C:56:41:EE:73:08:F7:05:D4:E1:32:5E:36:0A:F6:ED:E0:4F:DA

            X509v3 Key Usage: 
                Certificate Sign, CRL Sign
            Netscape Cert Type: 
                SSL CA
    Signature Algorithm: sha1WithRSAEncryption
         70:57:ca:db:42:bb:1d:d5:b1:7a:83:df:1d:28:2c:8f:ab:2b:
         33:ff:91:be:87:66:ab:79:ff:e0:60:98:80:12:58:3f:f2:3e:
         99:9a:c2:f2:1d:06:b2:97:28:ab:a2:92:78:f9:30:e3:7d:b8:
         8a:81:3a:78:15:47:94:7b:67:81:55:80:43:d7:ee:16:2e:91:
         6c:c2:73:2f:ae:35:2f:fc:20:3a:24:a1:42:e6:24:aa:91:42:
         46:f8:1f:b6:66:7c:02:29:43:7d:b9:86:36:e9:e0:78:93:18:
         08:1e:37:3d:de:6d:4b:cd:4d:dc:26:9e:64:21:19:9e:b8:bd:
         9a:37:b0:51:c0:3a:b5:2b:65:19:4b:ff:f1:76:7d:a7:d8:95:
         39:d7:6b:ce:a4:9a:85:e5:e0:ac:1b:43:31:e5:82:88:82:28:
         31:f8:70:55:8c:d1:9d:24:8f:eb:72:48:7a:1f:66:12:47:b9:
         58:09:92:9e:cf:28:8d:96:01:b6:7b:55:8e:30:e7:a7:38:b4:
         09:49:e5:29:82:9b:02:5a:cf:fe:06:45:00:f1:9e:64:15:de:
         79:eb:cc:38:64:05:b9:6a:b2:f0:a3:8f:64:71:a6:9a:f2:ed:
         97:54:03:71:90:f2:98:9c:ad:f3:b3:e7:8d:65:cd:93:b3:5e:
         a6:d9:55:31:9b:19:7c:3f:28:4b:5e:2c:30:8a:ce:d6:4c:1b:
         0d:81:43:c5:69:bd:55:92:78:33:12:ef:72:b2:28:f5:8f:fc:
         0a:22:83:13:5a:3c:c1:e8:aa:ca:a4:46:19:fe:f7:fd:84:41:
         61:a1:b0:2b:01:4e:39:e2:ce:27:18:61:0b:54:77:c0:7f:ea:
         3f:33:58:4e:6f:e7:01:2c:aa:a0:a5:fb:b5:0e:72:a2:8b:64:
         5a:18:fb:48:aa:08:ba:78:29:7d:7b:10:1c:04:02:a5:4a:dd:
         1e:4b:85:89:5f:da:69:d9:a5:33:68:cf:6e:bb:8c:e7:a1:ed:
         75:07:d3:3d:1a:87:cc:ff:a3:df:07:4a:71:5c:b5:7c:97:13:
         f4:d9:21:37:e3:47:99:79:f2:72:08:88:e3:66:88:28:a9:94:
         9a:6b:d4:6b:c7:85:6e:12:bc:d9:fd:52:b5:53:62:e9:a0:fe:
         35:fb:07:49:d4:2d:7b:35:ae:fd:e7:bc:91:dc:df:69:ac:f2:
         67:ba:28:59:41:f2:60:82:e2:8b:ec:8c:f1:2a:22:2f:33:d4:
         19:07:76:11:91:26:01:e1:56:bb:ba:8b:56:17:93:c5:bb:fc:
         88:c4:8d:01:f3:b8:76:cd:f2:6f:46:65:92:bf:80:30:10:39:
         d1:89:e0:4f:ef:7d:90:ba
-----BEGIN CERTIFICATE-----
MIIEWjCCAkKgAwIBAgIBATANBgkqhkiG9w0BAQUFADA1MQswCQYDVQQGEwJERTEM
MAoGA1UECgwDQ1BTMRgwFgYDVQQDDA9DUFMgUlNBIFJvb3QtQ0EwHhcNMTQwNjA4
MjEwNjE2WhcNMTYwNjE3MjEwNjE2WjA0MQswCQYDVQQGEwJERTEMMAoGA1UECgwD
Q1BTMRcwFQYDVQQDDA5DUFMgUlNBIEFTOCBDQTCCASIwDQYJKoZIhvcNAQEBBQAD
ggEPADCCAQoCggEBAK93CqfvxQ6KoKvXvBbi7S0hdY/OutpfIiNwRplAdsiRQcBO
hr7rp0NUH6JnGaQXMuL0Ws807xABJQe2yAMW+/mi3SzDkwVjjWH40I39+cvAEl6O
mTlIXxcMplA249ma06NsGrDibO9x4dYM/rUAJyX1j57RqofKsDJe+FakavOBHUg/
8GPHPmrZydP0ZeTLy9v8FMINDilaDqwQBrURIJGw+I3TL2vz1yyqNp1Uq3nkNmmj
5XrdptkUSZI5va9O38YU1Gr4ajS3lTOxZkGWoDlNRiuDKbuKLIwPYyBWqAa6h9wc
N7O0bK+YhssqfyBcnOxjGFd5TOJuZIcDco9nT5MCAwEAAaN2MHQwEgYDVR0TAQH/
BAgwBgEB/wIBADAdBgNVHQ4EFgQUDRE/tG6GCIYZmOxQ3I7fd1tf1QkwHwYDVR0j
BBgwFoAUO3xWQe5zCPcF1OEyXjYK9u3gT9owCwYDVR0PBAQDAgEGMBEGCWCGSAGG
+EIBAQQEAwICBDANBgkqhkiG9w0BAQUFAAOCAgEAcFfK20K7HdWxeoPfHSgsj6sr
M/+Rvodmq3n/4GCYgBJYP/I+mZrC8h0Gspcoq6KSePkw4324ioE6eBVHlHtngVWA
Q9fuFi6RbMJzL641L/wgOiShQuYkqpFCRvgftmZ8AilDfbmGNungeJMYCB43Pd5t
S81N3CaeZCEZnri9mjewUcA6tStlGUv/8XZ9p9iVOddrzqSaheXgrBtDMeWCiIIo
MfhwVYzRnSSP63JIeh9mEke5WAmSns8ojZYBtntVjjDnpzi0CUnlKYKbAlrP/gZF
APGeZBXeeevMOGQFuWqy8KOPZHGmmvLtl1QDcZDymJyt87PnjWXNk7NeptlVMZsZ
fD8oS14sMIrO1kwbDYFDxWm9VZJ4MxLvcrIo9Y/8CiKDE1o8weiqyqRGGf73/YRB
YaGwKwFOOeLOJxhhC1R3wH/qPzNYTm/nASyqoKX7tQ5yootkWhj7SKoIungpfXsQ
HAQCpUrdHkuFiV/aadmlM2jPbruM56HtdQfTPRqHzP+j3wdKcVy1fJcT9NkhN+NH
mXnycgiI42aIKKmUmmvUa8eFbhK82f1StVNi6aD+NfsHSdQtezWu/ee8kdzfaazy
Z7ooWUHyYILii+yM8SoiLzPUGQd2EZEmAeFWu7qLVheTxbv8iMSNAfO4ds3yb0Zl
kr+AMBA50YngT+99kLo=
-----END CERTIFICATE-----
